; ModuleID = 'source-C-CXX/18/1707.cpp'
source_filename = "source-C-CXX/18/1707.cpp"
target datalayout = "e-m:e-p270:32:32-p271:32:32-p272:64:64-i64:64-f80:128-n8:16:32:64-S128"
target triple = "x86_64-pc-linux-gnu"

%"class.std::ios_base::Init" = type { i8 }
%"class.std::basic_istream" = type { i32 (...)**, i64, %"class.std::basic_ios" }
%"class.std::basic_ios" = type { %"class.std::ios_base", %"class.std::basic_ostream"*, i8, i8, %"class.std::basic_streambuf"*, %"class.std::ctype"*, %"class.std::num_put"*, %"class.std::num_get"* }
%"class.std::ios_base" = type { i32 (...)**, i64, i64, i32, i32, i32, %"struct.std::ios_base::_Callback_list"*, %"struct.std::ios_base::_Words", [8 x %"struct.std::ios_base::_Words"], i32, %"struct.std::ios_base::_Words"*, %"class.std::locale" }
%"struct.std::ios_base::_Callback_list" = type { %"struct.std::ios_base::_Callback_list"*, void (i32, %"class.std::ios_base"*, i32)*, i32, i32 }
%"struct.std::ios_base::_Words" = type { i8*, i64 }
%"class.std::locale" = type { %"class.std::locale::_Impl"* }
%"class.std::locale::_Impl" = type { i32, %"class.std::locale::facet"**, i64, %"class.std::locale::facet"**, i8** }
%"class.std::locale::facet" = type <{ i32 (...)**, i32, [4 x i8] }>
%"class.std::basic_ostream" = type { i32 (...)**, %"class.std::basic_ios" }
%"class.std::basic_streambuf" = type { i32 (...)**, i8*, i8*, i8*, i8*, i8*, i8*, %"class.std::locale" }
%"class.std::ctype" = type <{ %"class.std::locale::facet.base", [4 x i8], %struct.__locale_struct*, i8, [7 x i8], i32*, i32*, i16*, i8, [256 x i8], [256 x i8], i8, [6 x i8] }>
%"class.std::locale::facet.base" = type <{ i32 (...)**, i32 }>
%struct.__locale_struct = type { [13 x %struct.__locale_data*], i16*, i32*, i32*, [13 x i8*] }
%struct.__locale_data = type opaque
%"class.std::num_put" = type { %"class.std::locale::facet.base", [4 x i8] }
%"class.std::num_get" = type { %"class.std::locale::facet.base", [4 x i8] }

@_ZStL8__ioinit = internal global %"class.std::ios_base::Init" zeroinitializer, align 1
@__dso_handle = external hidden global i8
@_ZSt3cin = external global %"class.std::basic_istream", align 8
@_ZSt4cout = external global %"class.std::basic_ostream", align 8
@.str = private unnamed_addr constant [2 x i8] c" \00", align 1
@llvm.global_ctors = appending global [1 x { i32, void ()*, i8* }] [{ i32, void ()*, i8* } { i32 65535, void ()* @_GLOBAL__sub_I_1707.cpp, i8* null }]

declare void @_ZNSt8ios_base4InitC1Ev(%"class.std::ios_base::Init"* nonnull align 1 dereferenceable(1)) unnamed_addr #0

; Function Attrs: nounwind
declare void @_ZNSt8ios_base4InitD1Ev(%"class.std::ios_base::Init"* nonnull align 1 dereferenceable(1)) unnamed_addr #1

; Function Attrs: nofree nounwind
declare i32 @__cxa_atexit(void (i8*)*, i8*, i8*) local_unnamed_addr #2

; Function Attrs: mustprogress norecurse sspstrong uwtable
define dso_local i32 @main() local_unnamed_addr #3 {
  %1 = alloca [101 x i8], align 16
  %2 = alloca [30 x i8], align 16
  %3 = alloca [30 x i8], align 16
  %4 = alloca [50 x [30 x i8]], align 16
  %5 = getelementptr inbounds [101 x i8], [101 x i8]* %1, i64 0, i64 0
  call void @llvm.lifetime.start.p0i8(i64 101, i8* nonnull %5) #8
  %6 = getelementptr inbounds [30 x i8], [30 x i8]* %2, i64 0, i64 0
  call void @llvm.lifetime.start.p0i8(i64 30, i8* nonnull %6) #8
  %7 = getelementptr inbounds [30 x i8], [30 x i8]* %3, i64 0, i64 0
  call void @llvm.lifetime.start.p0i8(i64 30, i8* nonnull %7) #8
  %8 = getelementptr inbounds [50 x [30 x i8]], [50 x [30 x i8]]* %4, i64 0, i64 0, i64 0
  call void @llvm.lifetime.start.p0i8(i64 1500, i8* nonnull %8) #8
  %9 = call nonnull align 8 dereferenceable(16) %"class.std::basic_istream"* @_ZNSi3getEPclc(%"class.std::basic_istream"* nonnull align 8 dereferenceable(16) @_ZSt3cin, i8* nonnull %5, i64 101, i8 signext 10)
  call void @_ZSt17__istream_extractRSiPcl(%"class.std::basic_istream"* nonnull align 8 dereferenceable(16) @_ZSt3cin, i8* nonnull %6, i64 30)
  call void @_ZSt17__istream_extractRSiPcl(%"class.std::basic_istream"* nonnull align 8 dereferenceable(16) @_ZSt3cin, i8* nonnull %7, i64 30)
  %10 = load i8, i8* %5, align 16, !tbaa !5
  %11 = icmp eq i8 %10, 0
  br i1 %11, label %49, label %12

12:                                               ; preds = %0, %36
  %13 = phi i8 [ %45, %36 ], [ %10, %0 ]
  %14 = phi i64 [ %41, %36 ], [ 0, %0 ]
  %15 = phi i32 [ %42, %36 ], [ 0, %0 ]
  %16 = icmp eq i8 %13, 32
  br i1 %16, label %36, label %17

17:                                               ; preds = %12
  %18 = sext i32 %15 to i64
  br label %24

19:                                               ; preds = %36
  %20 = trunc i64 %41 to i32
  %21 = icmp eq i32 %20, 0
  br i1 %21, label %49, label %22

22:                                               ; preds = %19
  %23 = and i64 %41, 4294967295
  br label %55

24:                                               ; preds = %17, %24
  %25 = phi i64 [ 0, %17 ], [ %30, %24 ]
  %26 = phi i64 [ %18, %17 ], [ %29, %24 ]
  %27 = phi i8 [ %13, %17 ], [ %32, %24 ]
  %28 = getelementptr inbounds [50 x [30 x i8]], [50 x [30 x i8]]* %4, i64 0, i64 %14, i64 %25
  store i8 %27, i8* %28, align 1, !tbaa !5
  %29 = add nsw i64 %26, 1
  %30 = add nuw i64 %25, 1
  %31 = getelementptr inbounds [101 x i8], [101 x i8]* %1, i64 0, i64 %29
  %32 = load i8, i8* %31, align 1, !tbaa !5
  %33 = icmp eq i8 %32, 32
  br i1 %33, label %34, label %24, !llvm.loop !8

34:                                               ; preds = %24
  %35 = trunc i64 %29 to i32
  br label %36

36:                                               ; preds = %34, %12
  %37 = phi i64 [ 0, %12 ], [ %30, %34 ]
  %38 = phi i32 [ %15, %12 ], [ %35, %34 ]
  %39 = and i64 %37, 4294967295
  %40 = getelementptr inbounds [50 x [30 x i8]], [50 x [30 x i8]]* %4, i64 0, i64 %14, i64 %39
  store i8 0, i8* %40, align 1, !tbaa !5
  %41 = add nuw i64 %14, 1
  %42 = add nsw i32 %38, 1
  %43 = sext i32 %42 to i64
  %44 = getelementptr inbounds [101 x i8], [101 x i8]* %1, i64 0, i64 %43
  %45 = load i8, i8* %44, align 1, !tbaa !5
  %46 = icmp eq i8 %45, 0
  br i1 %46, label %19, label %12, !llvm.loop !10

47:                                               ; preds = %62
  %48 = icmp slt i32 %20, 2
  br i1 %48, label %49, label %52

49:                                               ; preds = %0, %19, %47
  %50 = phi i32 [ %20, %47 ], [ 0, %19 ], [ 0, %0 ]
  %51 = add nsw i32 %50, -1
  br label %73

52:                                               ; preds = %47
  %53 = add nsw i32 %20, -1
  %54 = zext i32 %53 to i64
  br label %65

55:                                               ; preds = %22, %62
  %56 = phi i64 [ 0, %22 ], [ %63, %62 ]
  %57 = getelementptr inbounds [50 x [30 x i8]], [50 x [30 x i8]]* %4, i64 0, i64 %56, i64 0
  %58 = call i32 @strcmp(i8* noundef nonnull %57, i8* noundef nonnull %6) #9
  %59 = icmp eq i32 %58, 0
  br i1 %59, label %60, label %62

60:                                               ; preds = %55
  %61 = call i8* @strcpy(i8* noundef nonnull %57, i8* noundef nonnull %7) #8
  br label %62

62:                                               ; preds = %55, %60
  %63 = add nuw nsw i64 %56, 1
  %64 = icmp eq i64 %63, %23
  br i1 %64, label %47, label %55, !llvm.loop !11

65:                                               ; preds = %52, %65
  %66 = phi i64 [ 0, %52 ], [ %71, %65 ]
  %67 = getelementptr inbounds [50 x [30 x i8]], [50 x [30 x i8]]* %4, i64 0, i64 %66, i64 0
  %68 = call i64 @strlen(i8* noundef nonnull dereferenceable(1) %67) #8
  %69 = call nonnull align 8 dereferenceable(8) %"class.std::basic_ostream"* @_ZSt16__ostream_insertIcSt11char_traitsIcEERSt13basic_ostreamIT_T0_ES6_PKS3_l(%"class.std::basic_ostream"* nonnull align 8 dereferenceable(8) @_ZSt4cout, i8* nonnull %67, i64 %68)
  %70 = call nonnull align 8 dereferenceable(8) %"class.std::basic_ostream"* @_ZSt16__ostream_insertIcSt11char_traitsIcEERSt13basic_ostreamIT_T0_ES6_PKS3_l(%"class.std::basic_ostream"* nonnull align 8 dereferenceable(8) @_ZSt4cout, i8* nonnull getelementptr inbounds ([2 x i8], [2 x i8]* @.str, i64 0, i64 0), i64 1)
  %71 = add nuw nsw i64 %66, 1
  %72 = icmp eq i64 %71, %54
  br i1 %72, label %73, label %65, !llvm.loop !12

73:                                               ; preds = %65, %49
  %74 = phi i32 [ %51, %49 ], [ %53, %65 ]
  %75 = sext i32 %74 to i64
  %76 = getelementptr inbounds [50 x [30 x i8]], [50 x [30 x i8]]* %4, i64 0, i64 %75, i64 0
  %77 = call i64 @strlen(i8* noundef nonnull dereferenceable(1) %76) #8
  %78 = call nonnull align 8 dereferenceable(8) %"class.std::basic_ostream"* @_ZSt16__ostream_insertIcSt11char_traitsIcEERSt13basic_ostreamIT_T0_ES6_PKS3_l(%"class.std::basic_ostream"* nonnull align 8 dereferenceable(8) @_ZSt4cout, i8* nonnull %76, i64 %77)
  call void @llvm.lifetime.end.p0i8(i64 1500, i8* nonnull %8) #8
  call void @llvm.lifetime.end.p0i8(i64 30, i8* nonnull %7) #8
  call void @llvm.lifetime.end.p0i8(i64 30, i8* nonnull %6) #8
  call void @llvm.lifetime.end.p0i8(i64 101, i8* nonnull %5) #8
  ret i32 0
}

; Function Attrs: argmemonly mustprogress nofree nosync nounwind willreturn
declare void @llvm.lifetime.start.p0i8(i64 immarg, i8* nocapture) #4

declare nonnull align 8 dereferenceable(16) %"class.std::basic_istream"* @_ZNSi3getEPclc(%"class.std::basic_istream"* nonnull align 8 dereferenceable(16), i8*, i64, i8 signext) local_unnamed_addr #0

; Function Attrs: argmemonly mustprogress nofree nounwind readonly willreturn
declare i32 @strcmp(i8* nocapture, i8* nocapture) local_unnamed_addr #5

; Function Attrs: argmemonly mustprogress nofree nounwind willreturn
declare i8* @strcpy(i8* noalias returned writeonly, i8* noalias nocapture readonly) local_unnamed_addr #6

; Function Attrs: argmemonly mustprogress nofree nosync nounwind willreturn
declare void @llvm.lifetime.end.p0i8(i64 immarg, i8* nocapture) #4

declare void @_ZSt17__istream_extractRSiPcl(%"class.std::basic_istream"* nonnull align 8 dereferenceable(16), i8*, i64) local_unnamed_addr #0

declare nonnull align 8 dereferenceable(8) %"class.std::basic_ostream"* @_ZSt16__ostream_insertIcSt11char_traitsIcEERSt13basic_ostreamIT_T0_ES6_PKS3_l(%"class.std::basic_ostream"* nonnull align 8 dereferenceable(8), i8*, i64) local_unnamed_addr #0

; Function Attrs: argmemonly mustprogress nofree nounwind readonly willreturn
declare i64 @strlen(i8* nocapture) local_unnamed_addr #5

; Function Attrs: sspstrong uwtable
define internal void @_GLOBAL__sub_I_1707.cpp() #7 section ".text.startup" {
  tail call void @_ZNSt8ios_base4InitC1Ev(%"class.std::ios_base::Init"* nonnull align 1 dereferenceable(1) @_ZStL8__ioinit)
  %1 = tail call i32 @__cxa_atexit(void (i8*)* bitcast (void (%"class.std::ios_base::Init"*)* @_ZNSt8ios_base4InitD1Ev to void (i8*)*), i8* getelementptr inbounds (%"class.std::ios_base::Init", %"class.std::ios_base::Init"* @_ZStL8__ioinit, i64 0, i32 0), i8* nonnull @__dso_handle) #8
  ret void
}


!llvm.module.flags = !{!0, !1, !2, !3}
!llvm.ident = !{!4}

!0 = !{i32 1, !"wchar_size", i32 4}
!1 = !{i32 7, !"PIC Level", i32 2}
!2 = !{i32 7, !"PIE Level", i32 2}
!3 = !{i32 7, !"uwtable", i32 1}
!4 = !{!"clang version 13.0.0"}
!5 = !{!6, !6, i64 0}
!6 = !{!"omnipotent char", !7, i64 0}
!7 = !{!"Simple C++ TBAA"}
!8 = distinct !{!8, !9}
!9 = !{!"llvm.loop.mustprogress"}
!10 = distinct !{!10, !9}
!11 = distinct !{!11, !9}
!12 = distinct !{!12, !9}
